; Function Attrs: mustprogress nofree norecurse nosync nounwind willreturn memory(argmem: readwrite) uwtable
define internal void @ff_tx_fft2_ns_float_c(ptr readnone captures(none) %0, ptr noundef writeonly captures(none) initializes((0, 16)) %1, ptr noundef readonly captures(none) %2, i64 %3) #8 {
  %5 = load float, ptr %2, align 4, !tbaa !49
  %6 = getelementptr inbounds nuw i8, ptr %2, i64 8
  %7 = load float, ptr %6, align 4, !tbaa !49
  %8 = fsub nsz float %5, %7
  %9 = fadd nsz float %5, %7
  store float %9, ptr %1, align 4, !tbaa !49
  %10 = getelementptr inbounds nuw i8, ptr %2, i64 4
  %11 = load float, ptr %10, align 4, !tbaa !51
  %12 = getelementptr inbounds nuw i8, ptr %2, i64 12
  %13 = load float, ptr %12, align 4, !tbaa !51
  %14 = fsub nsz float %11, %13
  %15 = fadd nsz float %11, %13
  %16 = getelementptr inbounds nuw i8, ptr %1, i64 4
  store float %15, ptr %16, align 4, !tbaa !51
  %17 = getelementptr inbounds nuw i8, ptr %1, i64 8
  store float %8, ptr %17, align 4, !tbaa !27
  %.sroa.4.0..sroa_idx = getelementptr inbounds nuw i8, ptr %1, i64 12
  store float %14, ptr %.sroa.4.0..sroa_idx, align 4, !tbaa !27
  ret void
}